target datalayout = "e-m:e-p270:32:32-p271:32:32-p272:64:64-i64:64-i128:128-f80:128-n8:16:32:64-S128"
target triple = "x86_64-pc-linux-gnu"

%struct.h5tools_str_t = type { ptr, i64, i64 }

; Function Attrs: nounwind uwtable
define ptr @h5tools_str_reset(ptr noundef %0) #0 {
  %2 = alloca ptr, align 8
  store ptr %0, ptr %2, align 8, !tbaa !3
  %3 = load ptr, ptr %2, align 8, !tbaa !3
  %4 = getelementptr inbounds nuw %struct.h5tools_str_t, ptr %3, i32 0, i32 0
  %5 = load ptr, ptr %4, align 8, !tbaa !12
  %6 = icmp ne ptr %5, null
  br i1 %6, label %7, label %12

7:                                                ; preds = %1
  %8 = load ptr, ptr %2, align 8, !tbaa !3
  %9 = getelementptr inbounds nuw %struct.h5tools_str_t, ptr %8, i32 0, i32 2
  %10 = load i64, ptr %9, align 8, !tbaa !8
  %11 = icmp ule i64 %10, 0
  br i1 %11, label %12, label %21

12:                                               ; preds = %7, %1
  %13 = load ptr, ptr %2, align 8, !tbaa !3
  %14 = getelementptr inbounds nuw %struct.h5tools_str_t, ptr %13, i32 0, i32 2
  store i64 4096, ptr %14, align 8, !tbaa !8
  %15 = load ptr, ptr %2, align 8, !tbaa !3
  %16 = getelementptr inbounds nuw %struct.h5tools_str_t, ptr %15, i32 0, i32 2
  %17 = load i64, ptr %16, align 8, !tbaa !8
  %18 = call noalias ptr @malloc(i64 noundef %17) #15
  %19 = load ptr, ptr %2, align 8, !tbaa !3
  %20 = getelementptr inbounds nuw %struct.h5tools_str_t, ptr %19, i32 0, i32 0
  store ptr %18, ptr %20, align 8, !tbaa !12
  br label %21

21:                                               ; preds = %12, %7
  %22 = load ptr, ptr %2, align 8, !tbaa !3
  %23 = getelementptr inbounds nuw %struct.h5tools_str_t, ptr %22, i32 0, i32 0
  %24 = load ptr, ptr %23, align 8, !tbaa !12
  %25 = getelementptr inbounds i8, ptr %24, i64 0
  store i8 0, ptr %25, align 1, !tbaa !18
  %26 = load ptr, ptr %2, align 8, !tbaa !3
  %27 = getelementptr inbounds nuw %struct.h5tools_str_t, ptr %26, i32 0, i32 1
  store i64 0, ptr %27, align 8, !tbaa !13
  %28 = load ptr, ptr %2, align 8, !tbaa !3
  %29 = getelementptr inbounds nuw %struct.h5tools_str_t, ptr %28, i32 0, i32 0
  %30 = load ptr, ptr %29, align 8, !tbaa !12
  ret ptr %30
}