; Function Attrs: mustprogress nofree nounwind willreturn memory(write, argmem: readwrite, inaccessiblemem: readwrite) uwtable
define ptr @h5tools_str_reset(ptr noundef captures(none) initializes((8, 16)) %0) local_unnamed_addr #6 {
  %2 = load ptr, ptr %0, align 8, !tbaa !10
  %.not = icmp eq ptr %2, null
  br i1 %.not, label %7, label %3

3:                                                ; preds = %1
  %4 = getelementptr inbounds nuw i8, ptr %0, i64 16
  %5 = load i64, ptr %4, align 8, !tbaa !3
  %6 = icmp eq i64 %5, 0
  br i1 %6, label %7, label %10

7:                                                ; preds = %3, %1
  %8 = getelementptr inbounds nuw i8, ptr %0, i64 16
  store i64 4096, ptr %8, align 8, !tbaa !3
  %9 = tail call noalias dereferenceable_or_null(4096) ptr @malloc(i64 noundef 4096) #22
  store ptr %9, ptr %0, align 8, !tbaa !10
  br label %10

10:                                               ; preds = %7, %3
  %11 = phi ptr [ %9, %7 ], [ %2, %3 ]
  store i8 0, ptr %11, align 1, !tbaa !12
  %12 = getelementptr inbounds nuw i8, ptr %0, i64 8
  store i64 0, ptr %12, align 8, !tbaa !11
  %13 = load ptr, ptr %0, align 8, !tbaa !10
  ret ptr %13
}